target datalayout = "e-m:e-p270:32:32-p271:32:32-p272:64:64-i64:64-i128:128-f80:128-n8:16:32:64-S128"
target triple = "x86_64-unknown-linux-gnu"

%"struct.grpc_event_engine::experimental::EventEngine::TaskHandle" = type { [2 x i64] }
%"class.std::chrono::duration" = type { i64 }
%"union.absl::lts_20230802::internal_any_invocable::TypeErasedState" = type { %struct.anon }
%struct.anon = type { ptr, i64 }
%"class.absl::lts_20230802::AnyInvocable.6" = type { %"class.absl::lts_20230802::internal_any_invocable::Impl.7" }
%"class.absl::lts_20230802::internal_any_invocable::Impl.7" = type { %"class.absl::lts_20230802::internal_any_invocable::CoreImpl.8" }
%"class.absl::lts_20230802::internal_any_invocable::CoreImpl.8" = type { %"union.absl::lts_20230802::internal_any_invocable::TypeErasedState", ptr, ptr }
%class.anon.99 = type { ptr }

; Function Attrs: mustprogress nounwind uwtable
define internal void @"_ZN4absl12lts_2023080222internal_any_invocable8CoreImplILb0EvJEE22InitializeLocalManagerIZN17grpc_event_engine12experimental16PosixEventEngine8RunAfterENSt6chrono8durationIlSt5ratioILl1ELl1000000000EEEEPNS6_11EventEngine7ClosureEE3$_0vEEvv"(ptr noundef nonnull align 16 dereferenceable(32) %this) #5 align 2 {
entry:
  %this.addr = alloca ptr, align 8
  store ptr %this, ptr %this.addr, align 8
  %this1 = load ptr, ptr %this.addr, align 8
  %manager_ = getelementptr inbounds %"class.absl::lts_20230802::internal_any_invocable::CoreImpl.8", ptr %this1, i32 0, i32 1
  store ptr @_ZN4absl12lts_2023080222internal_any_invocable19LocalManagerTrivialENS1_14FunctionToCallEPNS1_15TypeErasedStateES4_, ptr %manager_, align 16
  ret void
}

; Function Attrs: mustprogress uwtable
define internal void @"_ZN4absl12lts_2023080222internal_any_invocable8CoreImplILb0EvJEE17InitializeStorageIRZN17grpc_event_engine12experimental16PosixEventEngine8RunAfterENSt6chrono8durationIlSt5ratioILl1ELl1000000000EEEEPNS6_11EventEngine7ClosureEE3$_0JSG_EvEEvDpOT0_"(ptr noundef nonnull align 16 dereferenceable(32) %this, ptr noundef nonnull align 8 dereferenceable(8) %args) #4 align 2 {
entry:
  %this.addr = alloca ptr, align 8
  %args.addr = alloca ptr, align 8
  store ptr %this, ptr %this.addr, align 8
  store ptr %args, ptr %args.addr, align 8
  %this1 = load ptr, ptr %this.addr, align 8
  %state_ = getelementptr inbounds %"class.absl::lts_20230802::internal_any_invocable::CoreImpl.8", ptr %this1, i32 0, i32 0
  %0 = load ptr, ptr %args.addr, align 8
  call void @llvm.memcpy.p0.p0.i64(ptr align 8 %state_, ptr align 8 %0, i64 8, i1 false)
  %invoker_ = getelementptr inbounds %"class.absl::lts_20230802::internal_any_invocable::CoreImpl.8", ptr %this1, i32 0, i32 2
  store ptr @"_ZN4absl12lts_2023080222internal_any_invocable12LocalInvokerILb0EvRZN17grpc_event_engine12experimental16PosixEventEngine8RunAfterENSt6chrono8durationIlSt5ratioILl1ELl1000000000EEEEPNS4_11EventEngine7ClosureEE3$_0JEEET0_PNS1_15TypeErasedStateEDpNS1_18ForwardedParameterIT2_E4typeE", ptr %invoker_, align 8
  call void @"_ZN4absl12lts_2023080222internal_any_invocable8CoreImplILb0EvJEE22InitializeLocalManagerIZN17grpc_event_engine12experimental16PosixEventEngine8RunAfterENSt6chrono8durationIlSt5ratioILl1ELl1000000000EEEEPNS6_11EventEngine7ClosureEE3$_0vEEvv"(ptr noundef nonnull align 16 dereferenceable(32) %this1)
  ret void
}

; Function Attrs: mustprogress uwtable
define internal void @"_ZN4absl12lts_2023080222internal_any_invocable8CoreImplILb0EvJEE10InitializeILNS3_10TargetTypeE3ERZN17grpc_event_engine12experimental16PosixEventEngine8RunAfterENSt6chrono8durationIlSt5ratioILl1ELl1000000000EEEEPNS7_11EventEngine7ClosureEE3$_0SH_vEEvOT1_"(ptr noundef nonnull align 16 dereferenceable(32) %this, ptr noundef nonnull align 8 dereferenceable(8) %f) #4 align 2 {
entry:
  %this.addr = alloca ptr, align 8
  %f.addr = alloca ptr, align 8
  store ptr %this, ptr %this.addr, align 8
  store ptr %f, ptr %f.addr, align 8
  %this1 = load ptr, ptr %this.addr, align 8
  %0 = load ptr, ptr %f.addr, align 8
  call void @"_ZN4absl12lts_2023080222internal_any_invocable8CoreImplILb0EvJEE17InitializeStorageIRZN17grpc_event_engine12experimental16PosixEventEngine8RunAfterENSt6chrono8durationIlSt5ratioILl1ELl1000000000EEEEPNS6_11EventEngine7ClosureEE3$_0JSG_EvEEvDpOT0_"(ptr noundef nonnull align 16 dereferenceable(32) %this1, ptr noundef nonnull align 8 dereferenceable(8) %0)
  ret void
}

; Function Attrs: mustprogress nounwind uwtable
define linkonce_odr void @_ZN4absl12lts_2023080222internal_any_invocable8CoreImplILb0EvJEED2Ev(ptr noundef nonnull align 16 dereferenceable(32) %this) unnamed_addr #5 comdat align 2 {
entry:
  %this.addr = alloca ptr, align 8
  store ptr %this, ptr %this.addr, align 8
  %this1 = load ptr, ptr %this.addr, align 8
  %manager_ = getelementptr inbounds %"class.absl::lts_20230802::internal_any_invocable::CoreImpl.8", ptr %this1, i32 0, i32 1
  %0 = load ptr, ptr %manager_, align 16
  %state_ = getelementptr inbounds %"class.absl::lts_20230802::internal_any_invocable::CoreImpl.8", ptr %this1, i32 0, i32 0
  %state_2 = getelementptr inbounds %"class.absl::lts_20230802::internal_any_invocable::CoreImpl.8", ptr %this1, i32 0, i32 0
  call void %0(i1 noundef zeroext true, ptr noundef %state_, ptr noundef %state_2) #3
  ret void
}

; Function Attrs: mustprogress uwtable
define internal void @"_ZN4absl12lts_2023080222internal_any_invocable8CoreImplILb0EvJEEC2IRZN17grpc_event_engine12experimental16PosixEventEngine8RunAfterENSt6chrono8durationIlSt5ratioILl1ELl1000000000EEEEPNS6_11EventEngine7ClosureEE3$_0SG_EENS1_24TypedConversionConstructIT_EEOT0_"(ptr noundef nonnull align 16 dereferenceable(32) %this, ptr noundef nonnull align 8 dereferenceable(8) %f) unnamed_addr #4 align 2 {
entry:
  %this.addr = alloca ptr, align 8
  %f.addr = alloca ptr, align 8
  %kTargetType = alloca i32, align 4
  store ptr %this, ptr %this.addr, align 8
  store ptr %f, ptr %f.addr, align 8
  %this1 = load ptr, ptr %this.addr, align 8
  store i32 3, ptr %kTargetType, align 4
  %0 = load ptr, ptr %f.addr, align 8
  call void @"_ZN4absl12lts_2023080222internal_any_invocable8CoreImplILb0EvJEE10InitializeILNS3_10TargetTypeE3ERZN17grpc_event_engine12experimental16PosixEventEngine8RunAfterENSt6chrono8durationIlSt5ratioILl1ELl1000000000EEEEPNS7_11EventEngine7ClosureEE3$_0SH_vEEvOT1_"(ptr noundef nonnull align 16 dereferenceable(32) %this1, ptr noundef nonnull align 8 dereferenceable(8) %0)
  ret void
}

; Function Attrs: mustprogress nounwind uwtable
define linkonce_odr void @_ZN4absl12lts_2023080222internal_any_invocable4ImplIFvvEED2Ev(ptr noundef nonnull align 16 dereferenceable(32) %this) unnamed_addr #5 comdat align 2 {
entry:
  %this.addr = alloca ptr, align 8
  store ptr %this, ptr %this.addr, align 8
  %this1 = load ptr, ptr %this.addr, align 8
  call void @_ZN4absl12lts_2023080222internal_any_invocable8CoreImplILb0EvJEED2Ev(ptr noundef nonnull align 16 dereferenceable(32) %this1) #3
  ret void
}

; Function Attrs: mustprogress uwtable
define internal void @"_ZN4absl12lts_2023080222internal_any_invocable4ImplIFvvEEC2IZN17grpc_event_engine12experimental16PosixEventEngine8RunAfterENSt6chrono8durationIlSt5ratioILl1ELl1000000000EEEEPNS7_11EventEngine7ClosureEE3$_0EENS1_19ConversionConstructEOT_"(ptr noundef nonnull align 16 dereferenceable(32) %this, ptr noundef nonnull align 8 dereferenceable(8) %f) unnamed_addr #4 align 2 {
entry:
  %this.addr = alloca ptr, align 8
  %f.addr = alloca ptr, align 8
  store ptr %this, ptr %this.addr, align 8
  store ptr %f, ptr %f.addr, align 8
  %this1 = load ptr, ptr %this.addr, align 8
  %0 = load ptr, ptr %f.addr, align 8
  call void @"_ZN4absl12lts_2023080222internal_any_invocable8CoreImplILb0EvJEEC2IRZN17grpc_event_engine12experimental16PosixEventEngine8RunAfterENSt6chrono8durationIlSt5ratioILl1ELl1000000000EEEEPNS6_11EventEngine7ClosureEE3$_0SG_EENS1_24TypedConversionConstructIT_EEOT0_"(ptr noundef nonnull align 16 dereferenceable(32) %this1, ptr noundef nonnull align 8 dereferenceable(8) %0)
  ret void
}

; Function Attrs: mustprogress nounwind uwtable
define linkonce_odr void @_ZN4absl12lts_2023080212AnyInvocableIFvvEED2Ev(ptr noundef nonnull align 16 dereferenceable(32) %this) unnamed_addr #5 comdat align 2 {
entry:
  %this.addr = alloca ptr, align 8
  store ptr %this, ptr %this.addr, align 8
  %this1 = load ptr, ptr %this.addr, align 8
  call void @_ZN4absl12lts_2023080222internal_any_invocable4ImplIFvvEED2Ev(ptr noundef nonnull align 16 dereferenceable(32) %this1) #3
  ret void
}

; Function Attrs: mustprogress uwtable
define internal void @"_ZN4absl12lts_2023080212AnyInvocableIFvvEEC2IZN17grpc_event_engine12experimental16PosixEventEngine8RunAfterENSt6chrono8durationIlSt5ratioILl1ELl1000000000EEEEPNS6_11EventEngine7ClosureEE3$_0vEEOT_"(ptr noundef nonnull align 16 dereferenceable(32) %this, ptr noundef nonnull align 8 dereferenceable(8) %f) unnamed_addr #4 align 2 {
entry:
  %this.addr = alloca ptr, align 8
  %f.addr = alloca ptr, align 8
  store ptr %this, ptr %this.addr, align 8
  store ptr %f, ptr %f.addr, align 8
  %this1 = load ptr, ptr %this.addr, align 8
  %0 = load ptr, ptr %f.addr, align 8
  call void @"_ZN4absl12lts_2023080222internal_any_invocable4ImplIFvvEEC2IZN17grpc_event_engine12experimental16PosixEventEngine8RunAfterENSt6chrono8durationIlSt5ratioILl1ELl1000000000EEEEPNS7_11EventEngine7ClosureEE3$_0EENS1_19ConversionConstructEOT_"(ptr noundef nonnull align 16 dereferenceable(32) %this1, ptr noundef nonnull align 8 dereferenceable(8) %0)
  ret void
}

; Function Attrs: mustprogress uwtable
define { i64, i64 } @_ZN17grpc_event_engine12experimental16PosixEventEngine8RunAfterENSt6chrono8durationIlSt5ratioILl1ELl1000000000EEEEPNS0_11EventEngine7ClosureE(ptr noundef nonnull align 8 dereferenceable(152) %this, i64 %when.coerce, ptr noundef %closure) unnamed_addr #4 align 2 personality ptr @__gxx_personality_v0 {
entry:
  %retval = alloca %"struct.grpc_event_engine::experimental::EventEngine::TaskHandle", align 8
  %when = alloca %"class.std::chrono::duration", align 8
  %this.addr = alloca ptr, align 8
  %closure.addr = alloca ptr, align 8
  %agg.tmp = alloca %"class.std::chrono::duration", align 8
  %agg.tmp2 = alloca %"class.absl::lts_20230802::AnyInvocable.6", align 16
  %ref.tmp = alloca %class.anon.99, align 8
  %exn.slot = alloca ptr, align 8
  %ehselector.slot = alloca i32, align 4
  %coerce.dive = getelementptr inbounds %"class.std::chrono::duration", ptr %when, i32 0, i32 0
  store i64 %when.coerce, ptr %coerce.dive, align 8
  store ptr %this, ptr %this.addr, align 8
  store ptr %closure, ptr %closure.addr, align 8
  %this1 = load ptr, ptr %this.addr, align 8
  call void @llvm.memcpy.p0.p0.i64(ptr align 8 %agg.tmp, ptr align 8 %when, i64 8, i1 false)
  %0 = getelementptr inbounds %class.anon.99, ptr %ref.tmp, i32 0, i32 0
  %1 = load ptr, ptr %closure.addr, align 8
  store ptr %1, ptr %0, align 8
  call void @"_ZN4absl12lts_2023080212AnyInvocableIFvvEEC2IZN17grpc_event_engine12experimental16PosixEventEngine8RunAfterENSt6chrono8durationIlSt5ratioILl1ELl1000000000EEEEPNS6_11EventEngine7ClosureEE3$_0vEEOT_"(ptr noundef nonnull align 16 dereferenceable(32) %agg.tmp2, ptr noundef nonnull align 8 dereferenceable(8) %ref.tmp)
  %coerce.dive3 = getelementptr inbounds %"class.std::chrono::duration", ptr %agg.tmp, i32 0, i32 0
  %2 = load i64, ptr %coerce.dive3, align 8
  %call = invoke { i64, i64 } @_ZN17grpc_event_engine12experimental16PosixEventEngine16RunAfterInternalENSt6chrono8durationIlSt5ratioILl1ELl1000000000EEEEN4absl12lts_2023080212AnyInvocableIFvvEEE(ptr noundef nonnull align 8 dereferenceable(152) %this1, i64 %2, ptr noundef %agg.tmp2)
          to label %invoke.cont unwind label %lpad

invoke.cont:                                      ; preds = %entry
  %coerce.dive4 = getelementptr inbounds %"struct.grpc_event_engine::experimental::EventEngine::TaskHandle", ptr %retval, i32 0, i32 0
  %3 = getelementptr inbounds { i64, i64 }, ptr %coerce.dive4, i32 0, i32 0
  %4 = extractvalue { i64, i64 } %call, 0
  store i64 %4, ptr %3, align 8
  %5 = getelementptr inbounds { i64, i64 }, ptr %coerce.dive4, i32 0, i32 1
  %6 = extractvalue { i64, i64 } %call, 1
  store i64 %6, ptr %5, align 8
  call void @_ZN4absl12lts_2023080212AnyInvocableIFvvEED2Ev(ptr noundef nonnull align 16 dereferenceable(32) %agg.tmp2) #3
  %coerce.dive5 = getelementptr inbounds %"struct.grpc_event_engine::experimental::EventEngine::TaskHandle", ptr %retval, i32 0, i32 0
  %7 = load { i64, i64 }, ptr %coerce.dive5, align 8
  ret { i64, i64 } %7

lpad:                                             ; preds = %entry
  %8 = landingpad { ptr, i32 }
          cleanup
  %9 = extractvalue { ptr, i32 } %8, 0
  store ptr %9, ptr %exn.slot, align 8
  %10 = extractvalue { ptr, i32 } %8, 1
  store i32 %10, ptr %ehselector.slot, align 4
  call void @_ZN4absl12lts_2023080212AnyInvocableIFvvEED2Ev(ptr noundef nonnull align 16 dereferenceable(32) %agg.tmp2) #3
  br label %eh.resume

eh.resume:                                        ; preds = %lpad
  %exn = load ptr, ptr %exn.slot, align 8
  %sel = load i32, ptr %ehselector.slot, align 4
  %lpad.val = insertvalue { ptr, i32 } poison, ptr %exn, 0
  %lpad.val6 = insertvalue { ptr, i32 } %lpad.val, i32 %sel, 1
  resume { ptr, i32 } %lpad.val6
}