; Function Attrs: mustprogress uwtable
define { i64, i64 } @_ZN17grpc_event_engine12experimental16PosixEventEngine8RunAfterENSt6chrono8durationIlSt5ratioILl1ELl1000000000EEEEPNS0_11EventEngine7ClosureE(ptr noundef nonnull align 8 dereferenceable(152) %this, i64 %when.coerce, ptr noundef %closure) unnamed_addr #3 align 2 personality ptr @__gxx_personality_v0 {
entry:
  %agg.tmp2 = alloca %"class.absl::lts_20230802::AnyInvocable.6", align 16
  %0 = ptrtoint ptr %closure to i64
  store i64 %0, ptr %agg.tmp2, align 16
  %invoker_.i.i.i.i.i = getelementptr inbounds i8, ptr %agg.tmp2, i64 24
  store ptr @"_ZN4absl12lts_2023080222internal_any_invocable12LocalInvokerILb0EvRZN17grpc_event_engine12experimental16PosixEventEngine8RunAfterENSt6chrono8durationIlSt5ratioILl1ELl1000000000EEEEPNS4_11EventEngine7ClosureEE3$_0JEEET0_PNS1_15TypeErasedStateEDpNS1_18ForwardedParameterIT2_E4typeE", ptr %invoker_.i.i.i.i.i, align 8
  %manager_.i.i.i.i.i.i = getelementptr inbounds i8, ptr %agg.tmp2, i64 16
  store ptr @_ZN4absl12lts_2023080222internal_any_invocable19LocalManagerTrivialENS1_14FunctionToCallEPNS1_15TypeErasedStateES4_, ptr %manager_.i.i.i.i.i.i, align 16
  %call = invoke { i64, i64 } @_ZN17grpc_event_engine12experimental16PosixEventEngine16RunAfterInternalENSt6chrono8durationIlSt5ratioILl1ELl1000000000EEEEN4absl12lts_2023080212AnyInvocableIFvvEEE(ptr noundef nonnull align 8 dereferenceable(152) %this, i64 %when.coerce, ptr noundef nonnull %agg.tmp2)
          to label %invoke.cont unwind label %lpad

invoke.cont:                                      ; preds = %entry
  %1 = load ptr, ptr %manager_.i.i.i.i.i.i, align 16
  call void %1(i1 noundef zeroext true, ptr noundef nonnull %agg.tmp2, ptr noundef nonnull %agg.tmp2) #26
  ret { i64, i64 } %call

lpad:                                             ; preds = %entry
  %2 = landingpad { ptr, i32 }
          cleanup
  %3 = load ptr, ptr %manager_.i.i.i.i.i.i, align 16
  call void %3(i1 noundef zeroext true, ptr noundef nonnull %agg.tmp2, ptr noundef nonnull %agg.tmp2) #26
  resume { ptr, i32 } %2
}